; Function Attrs: mustprogress uwtable
define hidden void @_ZNK8subterms5beginEv(ptr dead_on_unwind noalias writable sret(%"class.subterms::iterator") align 8 initializes((0, 1), (8, 24), (32, 56)) %0, ptr noundef nonnull readonly align 8 captures(none) dereferenceable(40) %1) local_unnamed_addr #3 align 2 personality ptr @__gxx_personality_v0 {
  %3 = getelementptr inbounds nuw i8, ptr %1, i64 24
  %4 = load ptr, ptr %3, align 8, !tbaa !85
  %5 = getelementptr inbounds nuw i8, ptr %1, i64 32
  %6 = load ptr, ptr %5, align 8, !tbaa !86
  %7 = load i8, ptr %1, align 8, !tbaa !73, !range !91, !noundef !92
  store i8 %7, ptr %0, align 8, !tbaa !93
  %8 = getelementptr inbounds nuw i8, ptr %0, i64 8
  store ptr null, ptr %8, align 8, !tbaa !58
  %9 = getelementptr inbounds nuw i8, ptr %0, i64 16
  store ptr %4, ptr %9, align 8, !tbaa !97
  %10 = getelementptr inbounds nuw i8, ptr %0, i64 24
  %11 = getelementptr inbounds nuw i8, ptr %0, i64 32
  tail call void @llvm.memset.p0.i64(ptr noundef nonnull align 8 dereferenceable(16) %11, i8 0, i64 16, i1 false)
  %12 = getelementptr inbounds nuw i8, ptr %0, i64 48
  store ptr %6, ptr %12, align 8, !tbaa !98
  %.not.i = icmp eq ptr %4, null
  br i1 %.not.i, label %13, label %14

13:                                               ; preds = %2
  store ptr %8, ptr %9, align 8, !tbaa !97
  br label %_ZN6vectorIP4exprLb0EjE5resetEv.exit.i

14:                                               ; preds = %2
  %15 = load ptr, ptr %4, align 8, !tbaa !58
  %.not.i.i = icmp eq ptr %15, null
  br i1 %.not.i.i, label %_ZN6vectorIP4exprLb0EjE5resetEv.exit.i, label %16

16:                                               ; preds = %14
  %17 = getelementptr inbounds i8, ptr %15, i64 -4
  store i32 0, ptr %17, align 4, !tbaa !56
  br label %_ZN6vectorIP4exprLb0EjE5resetEv.exit.i

18:                                               ; preds = %37
  %19 = landingpad { ptr, i32 }
          cleanup
  tail call void @_ZN8obj_markI4expr10bit_vector14default_t2uintIS0_EED2Ev(ptr noundef nonnull align 8 dereferenceable(24) %10) #24
  tail call void @_ZN6vectorIP4exprLb0EjED2Ev(ptr noundef nonnull align 8 dereferenceable(8) %8) #24
  resume { ptr, i32 } %19

_ZN6vectorIP4exprLb0EjE5resetEv.exit.i:           ; preds = %16, %14, %13
  %.pre.i.i = phi ptr [ %15, %16 ], [ null, %14 ], [ null, %13 ]
  %20 = phi ptr [ %4, %16 ], [ %4, %14 ], [ %8, %13 ]
  %.not10.i = icmp eq ptr %6, null
  br i1 %.not10.i, label %21, label %22

21:                                               ; preds = %_ZN6vectorIP4exprLb0EjE5resetEv.exit.i
  store ptr %10, ptr %12, align 8, !tbaa !98
  br label %22

22:                                               ; preds = %21, %_ZN6vectorIP4exprLb0EjE5resetEv.exit.i
  %23 = getelementptr inbounds nuw i8, ptr %1, i64 16
  %24 = load ptr, ptr %23, align 8, !tbaa !58
  %25 = icmp eq ptr %24, null
  br i1 %25, label %_ZN8subterms8iteratorC2ERKS_P10ptr_vectorI4exprEP8obj_markIS4_10bit_vector14default_t2uintIS4_EEb.exit, label %_ZNK15ref_vector_coreI4expr19ref_manager_wrapperIS0_11ast_managerEE4sizeEv.exit.i

_ZNK15ref_vector_coreI4expr19ref_manager_wrapperIS0_11ast_managerEE4sizeEv.exit.i: ; preds = %22
  %26 = getelementptr inbounds i8, ptr %24, i64 -4
  %27 = load i32, ptr %26, align 4, !tbaa !56
  %.not.i12.i = icmp eq i32 %27, 0
  br i1 %.not.i12.i, label %_ZN8subterms8iteratorC2ERKS_P10ptr_vectorI4exprEP8obj_markIS4_10bit_vector14default_t2uintIS4_EEb.exit, label %.lr.ph.preheader.i.i

.lr.ph.preheader.i.i:                             ; preds = %_ZNK15ref_vector_coreI4expr19ref_manager_wrapperIS0_11ast_managerEE4sizeEv.exit.i
  %wide.trip.count.i.i = zext i32 %27 to i64
  br label %.lr.ph.i.i

.lr.ph.i.i:                                       ; preds = %_ZN6vectorIP4exprLb0EjE9push_backERKS1_.exit.i.i, %.lr.ph.preheader.i.i
  %28 = phi ptr [ %.pre.i.i, %.lr.ph.preheader.i.i ], [ %38, %_ZN6vectorIP4exprLb0EjE9push_backERKS1_.exit.i.i ]
  %indvars.iv.i.i = phi i64 [ 0, %.lr.ph.preheader.i.i ], [ %indvars.iv.next.i.i, %_ZN6vectorIP4exprLb0EjE9push_backERKS1_.exit.i.i ]
  %29 = getelementptr inbounds nuw ptr, ptr %24, i64 %indvars.iv.i.i
  %30 = icmp eq ptr %28, null
  br i1 %30, label %37, label %31

31:                                               ; preds = %.lr.ph.i.i
  %32 = getelementptr inbounds i8, ptr %28, i64 -4
  %33 = load i32, ptr %32, align 4, !tbaa !56
  %34 = getelementptr inbounds i8, ptr %28, i64 -8
  %35 = load i32, ptr %34, align 4, !tbaa !56
  %36 = icmp eq i32 %33, %35
  br i1 %36, label %37, label %_ZN6vectorIP4exprLb0EjE9push_backERKS1_.exit.i.i

37:                                               ; preds = %31, %.lr.ph.i.i
  invoke void @_ZN6vectorIP4exprLb0EjE13expand_vectorEv(ptr noundef nonnull align 8 dereferenceable(8) %20)
          to label %.noexc.i unwind label %18

.noexc.i:                                         ; preds = %37
  %.pre.i.i.i = load ptr, ptr %20, align 8, !tbaa !58
  %.phi.trans.insert.i.i.i = getelementptr inbounds i8, ptr %.pre.i.i.i, i64 -4
  %.pre2.i.i.i = load i32, ptr %.phi.trans.insert.i.i.i, align 4, !tbaa !56
  br label %_ZN6vectorIP4exprLb0EjE9push_backERKS1_.exit.i.i

_ZN6vectorIP4exprLb0EjE9push_backERKS1_.exit.i.i: ; preds = %.noexc.i, %31
  %38 = phi ptr [ %.pre.i.i.i, %.noexc.i ], [ %28, %31 ]
  %39 = phi i32 [ %.pre2.i.i.i, %.noexc.i ], [ %33, %31 ]
  %40 = getelementptr inbounds i8, ptr %38, i64 -4
  %41 = zext i32 %39 to i64
  %42 = getelementptr inbounds nuw ptr, ptr %38, i64 %41
  %43 = load ptr, ptr %29, align 8, !tbaa !35
  store ptr %43, ptr %42, align 8, !tbaa !35
  %44 = add i32 %39, 1
  store i32 %44, ptr %40, align 4, !tbaa !56
  %indvars.iv.next.i.i = add nuw nsw i64 %indvars.iv.i.i, 1
  %exitcond.not.i.i = icmp eq i64 %indvars.iv.next.i.i, %wide.trip.count.i.i
  br i1 %exitcond.not.i.i, label %_ZN8subterms8iteratorC2ERKS_P10ptr_vectorI4exprEP8obj_markIS4_10bit_vector14default_t2uintIS4_EEb.exit, label %.lr.ph.i.i, !llvm.loop !99

_ZN8subterms8iteratorC2ERKS_P10ptr_vectorI4exprEP8obj_markIS4_10bit_vector14default_t2uintIS4_EEb.exit: ; preds = %_ZN6vectorIP4exprLb0EjE9push_backERKS1_.exit.i.i, %22, %_ZNK15ref_vector_coreI4expr19ref_manager_wrapperIS0_11ast_managerEE4sizeEv.exit.i
  ret void
}